target datalayout = "e-m:e-p270:32:32-p271:32:32-p272:64:64-i64:64-i128:128-f80:128-n8:16:32:64-S128"
target triple = "x86_64-pc-linux-gnu"

; Function Attrs: mustprogress uwtable
define noundef i32 @_ZNK6casadi11GenericType7getTypeEv(ptr noundef nonnull align 8 dereferenceable(8) %0) #4 align 2 {
  %2 = alloca i32, align 4
  %3 = alloca ptr, align 8
  store ptr %0, ptr %3, align 8, !tbaa !3
  %4 = load ptr, ptr %3, align 8
  %5 = call noundef zeroext i1 @_ZNK6casadi13GenericSharedINS_12SharedObjectENS_20SharedObjectInternalEE7is_nullEv(ptr noundef nonnull align 8 dereferenceable(8) %4)
  br i1 %5, label %6, label %7

6:                                                ; preds = %1
  store i32 0, ptr %2, align 4
  br label %13

7:                                                ; preds = %1
  %8 = call noundef ptr @_ZNK6casadi13GenericSharedINS_12SharedObjectENS_20SharedObjectInternalEE3getEv(ptr noundef nonnull align 8 dereferenceable(8) %4)
  %9 = load ptr, ptr %8, align 8, !tbaa !10
  %10 = getelementptr inbounds ptr, ptr %9, i64 4
  %11 = load ptr, ptr %10, align 8
  %12 = call noundef i32 %11(ptr noundef nonnull align 8 dereferenceable(24) %8)
  store i32 %12, ptr %2, align 4
  br label %13

13:                                               ; preds = %7, %6
  %14 = load i32, ptr %2, align 4
  ret i32 %14
}

; Function Attrs: mustprogress uwtable
define noundef zeroext i1 @_ZNK6casadi11GenericType18is_function_vectorEv(ptr noundef nonnull align 8 dereferenceable(8) %0) #4 align 2 {
  %2 = alloca ptr, align 8
  store ptr %0, ptr %2, align 8, !tbaa !3
  %3 = load ptr, ptr %2, align 8
  %4 = call noundef i32 @_ZNK6casadi11GenericType7getTypeEv(ptr noundef nonnull align 8 dereferenceable(8) %3)
  %5 = icmp eq i32 %4, 13
  ret i1 %5
}